; Function Attrs: nounwind uwtable
define hidden noalias ptr @mi_heap_calloc_aligned_at(ptr noundef %0, i64 noundef %1, i64 noundef %2, i64 noundef %3, i64 noundef %4) local_unnamed_addr #0 {
  %.not = icmp eq i64 %1, 1
  br i1 %.not, label %10, label %6

6:                                                ; preds = %5
  %7 = tail call { i64, i1 } @llvm.umul.with.overflow.i64(i64 range(i64 2, 1) %1, i64 %2)
  %8 = extractvalue { i64, i1 } %7, 1
  %9 = extractvalue { i64, i1 } %7, 0
  br i1 %8, label %mi_count_size_overflow.exit, label %10, !prof !3

mi_count_size_overflow.exit:                      ; preds = %6
  tail call void (i32, ptr, ...) @_mi_error_message(i32 noundef 75, ptr noundef nonnull @.str, i64 noundef %1, i64 noundef %2) #8
  br label %mi_heap_zalloc_aligned_at.exit

10:                                               ; preds = %6, %5
  %.05.ph = phi i64 [ %2, %5 ], [ %9, %6 ]
  %11 = icmp eq i64 %3, 0
  br i1 %11, label %mi_heap_zalloc_aligned_at.exit, label %12, !prof !3

12:                                               ; preds = %10
  %13 = tail call range(i64 1, 65) i64 @llvm.ctpop.i64(i64 %3)
  %14 = icmp samesign ugt i64 %13, 1
  %15 = icmp ugt i64 %3, 1048576
  %or.cond.i.i = or i1 %15, %14
  %16 = icmp slt i64 %.05.ph, 0
  %or.cond34.i.i = or i1 %or.cond.i.i, %16
  br i1 %or.cond34.i.i, label %mi_heap_zalloc_aligned_at.exit, label %17, !prof !4

17:                                               ; preds = %12
  %18 = icmp samesign ult i64 %.05.ph, 1025
  br i1 %18, label %19, label %35, !prof !5

19:                                               ; preds = %17
  %20 = add nsw i64 %3, -1
  %21 = add nuw nsw i64 %.05.ph, 7
  %22 = lshr i64 %21, 3
  %23 = getelementptr inbounds nuw i8, ptr %0, i64 8
  %24 = getelementptr inbounds nuw [129 x ptr], ptr %23, i64 0, i64 %22
  %25 = load ptr, ptr %24, align 8, !tbaa !6
  %26 = getelementptr inbounds nuw i8, ptr %25, i64 16
  %27 = load ptr, ptr %26, align 8, !tbaa !11
  %28 = ptrtoint ptr %27 to i64
  %29 = add i64 %4, %28
  %30 = and i64 %29, %20
  %31 = icmp ne i64 %30, 0
  %32 = icmp eq ptr %27, null
  %.not33.i.i = select i1 %32, i1 true, i1 %31
  br i1 %.not33.i.i, label %35, label %33, !prof !3

33:                                               ; preds = %19
  %34 = tail call ptr @_mi_page_malloc(ptr noundef nonnull %0, ptr noundef nonnull %25, i64 noundef %.05.ph) #8
  tail call void @_mi_block_zero_init(ptr noundef nonnull %25, ptr noundef %34, i64 noundef %.05.ph) #8
  br label %mi_heap_zalloc_aligned_at.exit

35:                                               ; preds = %19, %17
  %36 = tail call fastcc ptr @mi_heap_malloc_zero_aligned_at_fallback(ptr noundef %0, i64 noundef %.05.ph, i64 noundef %3, i64 noundef %4, i1 noundef zeroext true)
  br label %mi_heap_zalloc_aligned_at.exit

mi_heap_zalloc_aligned_at.exit:                   ; preds = %35, %33, %12, %10, %mi_count_size_overflow.exit
  %.0 = phi ptr [ null, %mi_count_size_overflow.exit ], [ null, %12 ], [ %36, %35 ], [ null, %10 ], [ %34, %33 ]
  ret ptr %.0
}